; Function Attrs: mustprogress nofree norecurse nosync nounwind willreturn memory(argmem: read) uwtable
define hidden noundef zeroext i1 @_ZN10CodeBuffer18is_backward_branchER5Label(ptr nocapture noundef nonnull readonly align 8 dereferenceable(448) %0, ptr nocapture noundef nonnull readonly align 8 dereferenceable(33) %1) local_unnamed_addr #6 align 2 {
  %3 = load i32, ptr %1, align 8
  %4 = icmp sgt i32 %3, -1
  br i1 %4, label %_ZNK10CodeBuffer15locator_addressEi.exit, label %16

_ZNK10CodeBuffer15locator_addressEi.exit:         ; preds = %2
  %5 = getelementptr inbounds i8, ptr %0, i64 112
  %6 = load ptr, ptr %5, align 8
  %7 = and i32 %3, 3
  %8 = getelementptr inbounds i8, ptr %0, i64 8
  %9 = zext nneg i32 %7 to i64
  %10 = getelementptr inbounds %class.CodeSection, ptr %8, i64 %9
  %11 = load ptr, ptr %10, align 8
  %12 = lshr i32 %3, 2
  %13 = zext nneg i32 %12 to i64
  %14 = getelementptr inbounds i8, ptr %11, i64 %13
  %15 = icmp ule ptr %6, %14
  br label %16

16:                                               ; preds = %_ZNK10CodeBuffer15locator_addressEi.exit, %2
  %17 = phi i1 [ false, %2 ], [ %15, %_ZNK10CodeBuffer15locator_addressEi.exit ]
  ret i1 %17
}